target datalayout = "e-m:e-p270:32:32-p271:32:32-p272:64:64-i64:64-i128:128-f80:128-n8:16:32:64-S128"
target triple = "x86_64-pc-linux-gnu"

%struct._GLFWlibrary = type { i32, %struct.GLFWallocator, %struct._GLFWplatform, %struct.anon, ptr, ptr, ptr, ptr, i32, i32, [16 x %struct._GLFWjoystick], ptr, i32, %struct._GLFWtls, %struct._GLFWtls, %struct._GLFWmutex, %struct.anon.8, %struct.anon.9, %struct.anon.10, %struct.anon.11, %struct.anon.12, %struct._GLFWlibraryWayland, %struct._GLFWlibraryX11, %struct._GLFWlibraryNull, %struct._GLFWlibraryGLX, %struct._GLFWlibraryLinux }
%struct.GLFWallocator = type { ptr, ptr, ptr, ptr }
%struct._GLFWplatform = type { i32, ptr, ptr, ptr, ptr, ptr, ptr, ptr, ptr, ptr, ptr, ptr, ptr, ptr, ptr, ptr, ptr, ptr, ptr, ptr, ptr, ptr, ptr, ptr, ptr, ptr, ptr, ptr, ptr, ptr, ptr, ptr, ptr, ptr, ptr, ptr, ptr, ptr, ptr, ptr, ptr, ptr, ptr, ptr, ptr, ptr, ptr, ptr, ptr, ptr, ptr, ptr, ptr, ptr, ptr, ptr, ptr, ptr, ptr, ptr, ptr, ptr, ptr, ptr, ptr, ptr, ptr, ptr, ptr, ptr, ptr, ptr }
%struct.anon = type { %struct._GLFWinitconfig, %struct._GLFWfbconfig, %struct._GLFWwndconfig, %struct._GLFWctxconfig, i32 }
%struct._GLFWinitconfig = type { i32, i32, i32, ptr, %struct.anon.0, %struct.anon.1, %struct.anon.2 }
%struct.anon.0 = type { i32, i32 }
%struct.anon.1 = type { i32 }
%struct.anon.2 = type { i32 }
%struct._GLFWfbconfig = type { i32, i32, i32, i32, i32, i32, i32, i32, i32, i32, i32, i32, i32, i32, i32, i32, i64 }
%struct._GLFWwndconfig = type { i32, i32, i32, i32, ptr, i32, i32, i32, i32, i32, i32, i32, i32, i32, i32, i32, i32, %struct.anon.3, %struct.anon.4, %struct.anon.5, %struct.anon.6 }
%struct.anon.3 = type { [256 x i8] }
%struct.anon.4 = type { [256 x i8], [256 x i8] }
%struct.anon.5 = type { i32, i32 }
%struct.anon.6 = type { [256 x i8] }
%struct._GLFWctxconfig = type { i32, i32, i32, i32, i32, i32, i32, i32, i32, i32, ptr, %struct.anon.7 }
%struct.anon.7 = type { i32 }
%struct._GLFWjoystick = type { i32, i32, ptr, i32, ptr, i32, ptr, i32, [128 x i8], ptr, [33 x i8], ptr, %struct._GLFWjoystickLinux }
%struct._GLFWjoystickLinux = type { i32, [4096 x i8], [512 x i32], [64 x i32], [64 x %struct.input_absinfo], [4 x [2 x i32]] }
%struct.input_absinfo = type { i32, i32, i32, i32, i32, i32 }
%struct._GLFWtls = type { %struct._GLFWtlsPOSIX }
%struct._GLFWtlsPOSIX = type { i32, i32 }
%struct._GLFWmutex = type { %struct._GLFWmutexPOSIX }
%struct._GLFWmutexPOSIX = type { i32, %union.pthread_mutex_t }
%union.pthread_mutex_t = type { %struct.__pthread_mutex_s }
%struct.__pthread_mutex_s = type { i32, i32, i32, i32, i32, i16, i16, %struct.__pthread_internal_list }
%struct.__pthread_internal_list = type { ptr, ptr }
%struct.anon.8 = type { i64, %struct._GLFWtimerPOSIX }
%struct._GLFWtimerPOSIX = type { i32, i64 }
%struct.anon.9 = type { i32, ptr, i32, i32, i32, i32, i32, i32, i32, i32, i32, i32, i32, i32, i32, i32, i32, i32, i32, i32, ptr, ptr, ptr, ptr, ptr, ptr, ptr, ptr, ptr, ptr, ptr, ptr, ptr, ptr, ptr, ptr, ptr, ptr, ptr }
%struct.anon.10 = type { ptr, ptr, ptr, ptr, ptr, ptr, ptr, ptr }
%struct.anon.11 = type { i32, ptr, [2 x ptr], ptr, i32, i32, i32, i32, i32, i32, i32 }
%struct.anon.12 = type { ptr, ptr }
%struct._GLFWlibraryWayland = type { ptr, ptr, ptr, ptr, ptr, ptr, ptr, ptr, ptr, ptr, ptr, ptr, ptr, ptr, ptr, ptr, ptr, ptr, ptr, i32, ptr, ptr, ptr, ptr, i32, ptr, ptr, ptr, ptr, ptr, i32, i32, i32, i32, i32, i32, i32, ptr, [256 x i16], [349 x i16], [349 x [5 x i8]], %struct.anon.13, ptr, ptr, %struct.anon.14, %struct.anon.15, %struct.anon.16, %struct.anon.17 }
%struct.anon.13 = type { ptr, ptr, ptr, ptr, ptr, i32, i32, i32, i32, i32, i32, i32, ptr, ptr, ptr, ptr, ptr, ptr, ptr, ptr, ptr, ptr, ptr, ptr, ptr, ptr, ptr, ptr, ptr, ptr, ptr, ptr }
%struct.anon.14 = type { ptr, ptr, ptr, ptr, ptr, ptr, ptr, ptr, ptr, ptr, ptr, ptr, ptr, ptr, ptr, ptr, ptr, ptr, ptr, ptr }
%struct.anon.15 = type { ptr, ptr, ptr, ptr, ptr }
%struct.anon.16 = type { ptr, ptr, ptr, ptr }
%struct.anon.17 = type { ptr, ptr, ptr, i32, ptr, ptr, ptr, ptr, ptr, ptr, ptr, ptr, ptr, ptr, ptr, ptr, ptr, ptr, ptr, ptr, ptr, ptr, ptr, ptr, ptr, ptr, ptr, ptr, ptr }
%struct._GLFWlibraryX11 = type { ptr, i32, i64, float, float, i64, i64, i32, ptr, ptr, i32, ptr, ptr, [349 x [5 x i8]], [256 x i16], [349 x i16], double, double, ptr, [2 x i32], i64, i64, i64, i64, i64, i64, i64, i64, i64, i64, i64, i64, i64, i64, i64, i64, i64, i64, i64, i64, i64, i64, i64, i64, i64, i64, i64, i64, i64, i64, i64, i64, i64, i64, i64, i64, i64, i64, i64, i64, i64, i64, i64, i64, i64, i64, i64, i64, i64, i64, %struct.anon.18, %struct.anon.19, %struct.anon.20, %struct.anon.21, %struct.anon.22, %struct.anon.23, %struct.anon.24, %struct.anon.25, %struct.anon.26, %struct.anon.27, %struct.anon.28, %struct.anon.29, %struct.anon.30 }
%struct.anon.18 = type { ptr, i32, ptr, ptr, ptr, ptr, ptr, ptr, ptr, ptr, ptr, ptr, ptr, ptr, ptr, ptr, ptr, ptr, ptr, ptr, ptr, ptr, ptr, ptr, ptr, ptr, ptr, ptr, ptr, ptr, ptr, ptr, ptr, ptr, ptr, ptr, ptr, ptr, ptr, ptr, ptr, ptr, ptr, ptr, ptr, ptr, ptr, ptr, ptr, ptr, ptr, ptr, ptr, ptr, ptr, ptr, ptr, ptr, ptr, ptr, ptr, ptr, ptr, ptr, ptr, ptr, ptr, ptr, ptr, ptr, ptr, ptr, ptr, ptr, ptr, ptr, ptr, ptr, ptr, ptr, ptr, ptr, ptr, ptr, ptr, ptr, ptr, ptr }
%struct.anon.19 = type { ptr, ptr, ptr, ptr }
%struct.anon.20 = type { i32, ptr, i32, i32, i32, i32, i32, i32, ptr, ptr, ptr, ptr, ptr, ptr, ptr, ptr, ptr, ptr, ptr, ptr, ptr, ptr, ptr, ptr, ptr }
%struct.anon.21 = type { i32, i32, i32, i32, i32, i32, i32, i32, ptr, ptr, ptr, ptr, ptr, ptr, ptr, ptr, ptr }
%struct.anon.22 = type { i32, i32, i32, i32, i32 }
%struct.anon.23 = type { i32, i64, i64 }
%struct.anon.24 = type { ptr, ptr, ptr, ptr, ptr, ptr, ptr }
%struct.anon.25 = type { i32, ptr, i32, i32, ptr, ptr, ptr }
%struct.anon.26 = type { ptr, ptr }
%struct.anon.27 = type { i32, ptr, i32, i32, ptr, ptr, ptr, ptr }
%struct.anon.28 = type { i32, ptr, i32, i32, i32, i32, i32, ptr, ptr }
%struct.anon.29 = type { i32, ptr, i32, i32, i32, i32, ptr, ptr, ptr }
%struct.anon.30 = type { i32, ptr, i32, i32, i32, i32, ptr, ptr, ptr, ptr }
%struct._GLFWlibraryNull = type { i32, i32, ptr, ptr, [121 x i16], [349 x i8] }
%struct._GLFWlibraryGLX = type { i32, i32, i32, i32, ptr, ptr, ptr, ptr, ptr, ptr, ptr, ptr, ptr, ptr, ptr, ptr, ptr, ptr, ptr, ptr, ptr, ptr, ptr, ptr, i32, i32, i32, i32, i32, i32, i32, i32, i32, i32, i32, i32 }
%struct._GLFWlibraryLinux = type { i32, i32, %struct.re_pattern_buffer, i32, i32 }
%struct.re_pattern_buffer = type { ptr, i64, i64, i64, ptr, ptr, i64, i8 }
%struct._GLFWwindow = type { ptr, i32, i32, i32, i32, i32, i32, i32, ptr, i32, %struct.GLFWvidmode, ptr, ptr, ptr, i32, i32, i32, i32, i32, i32, i32, i32, i32, i32, [8 x i8], [349 x i8], double, double, i32, %struct._GLFWcontext, %struct.anon.33, %struct._GLFWwindowWayland, %struct._GLFWwindowX11, %struct._GLFWwindowNull }
%struct.GLFWvidmode = type { i32, i32, i32, i32, i32, i32 }
%struct._GLFWcontext = type { i32, i32, i32, i32, i32, i32, i32, i32, i32, i32, i32, ptr, ptr, ptr, ptr, ptr, ptr, ptr, ptr, ptr, %struct.anon.31, %struct.anon.32, %struct._GLFWcontextGLX }
%struct.anon.31 = type { ptr, ptr, ptr, ptr }
%struct.anon.32 = type { ptr, i32, i32, ptr }
%struct._GLFWcontextGLX = type { ptr, i64 }
%struct.anon.33 = type { ptr, ptr, ptr, ptr, ptr, ptr, ptr, ptr, ptr, ptr, ptr, ptr, ptr, ptr, ptr, ptr, ptr }
%struct._GLFWwindowWayland = type { i32, i32, i32, i32, i32, i32, i32, i32, i32, i32, i32, ptr, ptr, %struct.anon.34, %struct.anon.35, %struct.anon.36, %struct.anon.37, ptr, double, double, ptr, i32, ptr, i64, i64, ptr, i32, ptr, ptr, ptr, ptr, ptr, ptr, %struct.anon.38 }
%struct.anon.34 = type { ptr }
%struct.anon.35 = type { i32, i32, i32, i32, i32, i32 }
%struct.anon.36 = type { ptr, ptr, ptr, i32 }
%struct.anon.37 = type { ptr }
%struct.anon.38 = type { i32, ptr, %struct._GLFWfallbackEdgeWayland, %struct._GLFWfallbackEdgeWayland, %struct._GLFWfallbackEdgeWayland, %struct._GLFWfallbackEdgeWayland, ptr }
%struct._GLFWfallbackEdgeWayland = type { ptr, ptr, ptr }
%struct._GLFWwindowX11 = type { i64, i64, i64, ptr, i32, i32, i32, i32, i32, i32, i32, i32, i32, i32, i32, i32, [256 x i64] }
%struct._GLFWwindowNull = type { i32, i32, i32, i32, i32, i32, i32, i32, i32, i32, i32, float }
%struct.VkXcbSurfaceCreateInfoKHR = type { i32, ptr, i32, ptr, i64 }
%struct.VkXlibSurfaceCreateInfoKHR = type { i32, ptr, i32, ptr, i64 }

@_glfw = external global %struct._GLFWlibrary, align 8
@.str.25 = private unnamed_addr constant [58 x i8] c"X11: Vulkan instance missing VK_KHR_xcb_surface extension\00", align 1
@.str.26 = private unnamed_addr constant [39 x i8] c"X11: Failed to retrieve XCB connection\00", align 1
@.str.28 = private unnamed_addr constant [59 x i8] c"X11: Vulkan instance missing VK_KHR_xlib_surface extension\00", align 1
@.str.29 = private unnamed_addr constant [22 x i8] c"vkCreateXcbSurfaceKHR\00", align 1
@.str.30 = private unnamed_addr constant [45 x i8] c"X11: Failed to create Vulkan XCB surface: %s\00", align 1
@.str.31 = private unnamed_addr constant [23 x i8] c"vkCreateXlibSurfaceKHR\00", align 1
@.str.32 = private unnamed_addr constant [45 x i8] c"X11: Failed to create Vulkan X11 surface: %s\00", align 1

; Function Attrs: nounwind uwtable
define hidden i32 @_glfwCreateWindowSurfaceX11(ptr noundef %0, ptr noundef %1, ptr noundef %2, ptr noundef %3) #0 {
  %5 = alloca i32, align 4
  %6 = alloca ptr, align 8
  %7 = alloca ptr, align 8
  %8 = alloca ptr, align 8
  %9 = alloca ptr, align 8
  %10 = alloca i32, align 4
  %11 = alloca %struct.VkXcbSurfaceCreateInfoKHR, align 8
  %12 = alloca ptr, align 8
  %13 = alloca ptr, align 8
  %14 = alloca i32, align 4
  %15 = alloca i32, align 4
  %16 = alloca %struct.VkXlibSurfaceCreateInfoKHR, align 8
  %17 = alloca ptr, align 8
  store ptr %0, ptr %6, align 8, !tbaa !97
  store ptr %1, ptr %7, align 8, !tbaa !133
  store ptr %2, ptr %8, align 8, !tbaa !477
  store ptr %3, ptr %9, align 8, !tbaa !318
  %18 = load i32, ptr getelementptr inbounds nuw (%struct.anon.11, ptr getelementptr inbounds nuw (%struct._GLFWlibrary, ptr @_glfw, i32 0, i32 19), i32 0, i32 9), align 4, !tbaa !469
  %19 = icmp ne i32 %18, 0
  br i1 %19, label %20, label %59

20:                                               ; preds = %4
  %21 = load ptr, ptr getelementptr inbounds nuw (%struct._GLFWlibraryX11, ptr getelementptr inbounds nuw (%struct._GLFWlibrary, ptr @_glfw, i32 0, i32 22), i32 0, i32 78), align 8, !tbaa !470
  %22 = icmp ne ptr %21, null
  br i1 %22, label %23, label %59

23:                                               ; preds = %20
  call void @llvm.lifetime.start.p0(i64 4, ptr %10) #8
  call void @llvm.lifetime.start.p0(i64 40, ptr %11) #8
  call void @llvm.lifetime.start.p0(i64 8, ptr %12) #8
  call void @llvm.lifetime.start.p0(i64 8, ptr %13) #8
  %24 = load ptr, ptr getelementptr inbounds nuw (%struct.anon.26, ptr getelementptr inbounds nuw (%struct._GLFWlibraryX11, ptr getelementptr inbounds nuw (%struct._GLFWlibrary, ptr @_glfw, i32 0, i32 22), i32 0, i32 78), i32 0, i32 1), align 8, !tbaa !474
  %25 = load ptr, ptr getelementptr inbounds nuw (%struct._GLFWlibrary, ptr @_glfw, i32 0, i32 22), align 8, !tbaa !96
  %26 = call ptr %24(ptr noundef %25)
  store ptr %26, ptr %13, align 8, !tbaa !475
  %27 = load ptr, ptr %13, align 8, !tbaa !475
  %28 = icmp ne ptr %27, null
  br i1 %28, label %30, label %29

29:                                               ; preds = %23
  call void (i32, ptr, ...) @_glfwInputError(i32 noundef 65544, ptr noundef @.str.26)
  store i32 -7, ptr %5, align 4
  store i32 1, ptr %14, align 4
  br label %58

30:                                               ; preds = %23
  %31 = load ptr, ptr getelementptr inbounds nuw (%struct.anon.11, ptr getelementptr inbounds nuw (%struct._GLFWlibrary, ptr @_glfw, i32 0, i32 19), i32 0, i32 3), align 8, !tbaa !473
  %32 = load ptr, ptr %6, align 8, !tbaa !97
  %33 = call ptr %31(ptr noundef %32, ptr noundef @.str.29)
  store ptr %33, ptr %12, align 8, !tbaa !97
  %34 = load ptr, ptr %12, align 8, !tbaa !97
  %35 = icmp ne ptr %34, null
  br i1 %35, label %37, label %36

36:                                               ; preds = %30
  call void (i32, ptr, ...) @_glfwInputError(i32 noundef 65542, ptr noundef @.str.25)
  store i32 -7, ptr %5, align 4
  store i32 1, ptr %14, align 4
  br label %58

37:                                               ; preds = %30
  call void @llvm.memset.p0.i64(ptr align 8 %11, i8 0, i64 40, i1 false)
  %38 = getelementptr inbounds nuw %struct.VkXcbSurfaceCreateInfoKHR, ptr %11, i32 0, i32 0
  store i32 1000005000, ptr %38, align 8, !tbaa !479
  %39 = load ptr, ptr %13, align 8, !tbaa !475
  %40 = getelementptr inbounds nuw %struct.VkXcbSurfaceCreateInfoKHR, ptr %11, i32 0, i32 3
  store ptr %39, ptr %40, align 8, !tbaa !481
  %41 = load ptr, ptr %7, align 8, !tbaa !133
  %42 = getelementptr inbounds nuw %struct._GLFWwindow, ptr %41, i32 0, i32 32
  %43 = getelementptr inbounds nuw %struct._GLFWwindowX11, ptr %42, i32 0, i32 1
  %44 = load i64, ptr %43, align 8, !tbaa !139
  %45 = getelementptr inbounds nuw %struct.VkXcbSurfaceCreateInfoKHR, ptr %11, i32 0, i32 4
  store i64 %44, ptr %45, align 8, !tbaa !482
  %46 = load ptr, ptr %12, align 8, !tbaa !97
  %47 = load ptr, ptr %6, align 8, !tbaa !97
  %48 = load ptr, ptr %8, align 8, !tbaa !477
  %49 = load ptr, ptr %9, align 8, !tbaa !318
  %50 = call i32 %46(ptr noundef %47, ptr noundef %11, ptr noundef %48, ptr noundef %49)
  store i32 %50, ptr %10, align 4, !tbaa !194
  %51 = load i32, ptr %10, align 4, !tbaa !194
  %52 = icmp ne i32 %51, 0
  br i1 %52, label %53, label %56

53:                                               ; preds = %37
  %54 = load i32, ptr %10, align 4, !tbaa !194
  %55 = call ptr @_glfwGetVulkanResultString(i32 noundef %54)
  call void (i32, ptr, ...) @_glfwInputError(i32 noundef 65544, ptr noundef @.str.30, ptr noundef %55)
  br label %56

56:                                               ; preds = %53, %37
  %57 = load i32, ptr %10, align 4, !tbaa !194
  store i32 %57, ptr %5, align 4
  store i32 1, ptr %14, align 4
  br label %58

58:                                               ; preds = %56, %36, %29
  call void @llvm.lifetime.end.p0(i64 8, ptr %13) #8
  call void @llvm.lifetime.end.p0(i64 8, ptr %12) #8
  call void @llvm.lifetime.end.p0(i64 40, ptr %11) #8
  call void @llvm.lifetime.end.p0(i64 4, ptr %10) #8
  br label %88

59:                                               ; preds = %20, %4
  call void @llvm.lifetime.start.p0(i64 4, ptr %15) #8
  call void @llvm.lifetime.start.p0(i64 40, ptr %16) #8
  call void @llvm.lifetime.start.p0(i64 8, ptr %17) #8
  %60 = load ptr, ptr getelementptr inbounds nuw (%struct.anon.11, ptr getelementptr inbounds nuw (%struct._GLFWlibrary, ptr @_glfw, i32 0, i32 19), i32 0, i32 3), align 8, !tbaa !473
  %61 = load ptr, ptr %6, align 8, !tbaa !97
  %62 = call ptr %60(ptr noundef %61, ptr noundef @.str.31)
  store ptr %62, ptr %17, align 8, !tbaa !97
  %63 = load ptr, ptr %17, align 8, !tbaa !97
  %64 = icmp ne ptr %63, null
  br i1 %64, label %66, label %65

65:                                               ; preds = %59
  call void (i32, ptr, ...) @_glfwInputError(i32 noundef 65542, ptr noundef @.str.28)
  store i32 -7, ptr %5, align 4
  store i32 1, ptr %14, align 4
  br label %87

66:                                               ; preds = %59
  call void @llvm.memset.p0.i64(ptr align 8 %16, i8 0, i64 40, i1 false)
  %67 = getelementptr inbounds nuw %struct.VkXlibSurfaceCreateInfoKHR, ptr %16, i32 0, i32 0
  store i32 1000004000, ptr %67, align 8, !tbaa !483
  %68 = load ptr, ptr getelementptr inbounds nuw (%struct._GLFWlibrary, ptr @_glfw, i32 0, i32 22), align 8, !tbaa !96
  %69 = getelementptr inbounds nuw %struct.VkXlibSurfaceCreateInfoKHR, ptr %16, i32 0, i32 3
  store ptr %68, ptr %69, align 8, !tbaa !485
  %70 = load ptr, ptr %7, align 8, !tbaa !133
  %71 = getelementptr inbounds nuw %struct._GLFWwindow, ptr %70, i32 0, i32 32
  %72 = getelementptr inbounds nuw %struct._GLFWwindowX11, ptr %71, i32 0, i32 1
  %73 = load i64, ptr %72, align 8, !tbaa !139
  %74 = getelementptr inbounds nuw %struct.VkXlibSurfaceCreateInfoKHR, ptr %16, i32 0, i32 4
  store i64 %73, ptr %74, align 8, !tbaa !486
  %75 = load ptr, ptr %17, align 8, !tbaa !97
  %76 = load ptr, ptr %6, align 8, !tbaa !97
  %77 = load ptr, ptr %8, align 8, !tbaa !477
  %78 = load ptr, ptr %9, align 8, !tbaa !318
  %79 = call i32 %75(ptr noundef %76, ptr noundef %16, ptr noundef %77, ptr noundef %78)
  store i32 %79, ptr %15, align 4, !tbaa !194
  %80 = load i32, ptr %15, align 4, !tbaa !194
  %81 = icmp ne i32 %80, 0
  br i1 %81, label %82, label %85

82:                                               ; preds = %66
  %83 = load i32, ptr %15, align 4, !tbaa !194
  %84 = call ptr @_glfwGetVulkanResultString(i32 noundef %83)
  call void (i32, ptr, ...) @_glfwInputError(i32 noundef 65544, ptr noundef @.str.32, ptr noundef %84)
  br label %85

85:                                               ; preds = %82, %66
  %86 = load i32, ptr %15, align 4, !tbaa !194
  store i32 %86, ptr %5, align 4
  store i32 1, ptr %14, align 4
  br label %87

87:                                               ; preds = %85, %65
  call void @llvm.lifetime.end.p0(i64 8, ptr %17) #8
  call void @llvm.lifetime.end.p0(i64 40, ptr %16) #8
  call void @llvm.lifetime.end.p0(i64 4, ptr %15) #8
  br label %88

88:                                               ; preds = %87, %58
  %89 = load i32, ptr %5, align 4
  ret i32 %89
}