; Function Attrs: nounwind uwtable
define hidden i32 @_glfwCreateWindowSurfaceX11(ptr noundef %0, ptr noundef readonly captures(none) %1, ptr noundef %2, ptr noundef %3) local_unnamed_addr #0 {
  %5 = alloca %struct.VkXcbSurfaceCreateInfoKHR, align 8
  %6 = alloca %struct.VkXlibSurfaceCreateInfoKHR, align 8
  %7 = load i32, ptr getelementptr inbounds nuw (i8, ptr @_glfw, i64 133860), align 4, !tbaa !437
  %8 = icmp ne i32 %7, 0
  %9 = load ptr, ptr getelementptr inbounds nuw (i8, ptr @_glfw, i64 142496), align 8
  %10 = icmp ne ptr %9, null
  %or.cond = select i1 %8, i1 %10, i1 false
  br i1 %or.cond, label %11, label %29

11:                                               ; preds = %4
  call void @llvm.lifetime.start.p0(i64 40, ptr nonnull %5) #17
  %12 = load ptr, ptr getelementptr inbounds nuw (i8, ptr @_glfw, i64 142504), align 8, !tbaa !440
  %13 = load ptr, ptr getelementptr inbounds nuw (i8, ptr @_glfw, i64 137840), align 8, !tbaa !93
  %14 = tail call ptr %12(ptr noundef %13) #17
  %.not29 = icmp eq ptr %14, null
  br i1 %.not29, label %15, label %16

15:                                               ; preds = %11
  tail call void (i32, ptr, ...) @_glfwInputError(i32 noundef 65544, ptr noundef nonnull @.str.26) #17
  br label %28

16:                                               ; preds = %11
  %17 = load ptr, ptr getelementptr inbounds nuw (i8, ptr @_glfw, i64 133832), align 8, !tbaa !439
  %18 = tail call ptr %17(ptr noundef %0, ptr noundef nonnull @.str.29) #17
  %.not30 = icmp eq ptr %18, null
  br i1 %.not30, label %19, label %20

19:                                               ; preds = %16
  tail call void (i32, ptr, ...) @_glfwInputError(i32 noundef 65542, ptr noundef nonnull @.str.25) #17
  br label %28

20:                                               ; preds = %16
  call void @llvm.memset.p0.i64(ptr noundef nonnull align 8 dereferenceable(40) %5, i8 0, i64 24, i1 false)
  store i32 1000005000, ptr %5, align 8, !tbaa !441
  %21 = getelementptr inbounds nuw i8, ptr %5, i64 24
  store ptr %14, ptr %21, align 8, !tbaa !444
  %22 = getelementptr inbounds nuw i8, ptr %1, i64 1248
  %23 = load i64, ptr %22, align 8, !tbaa !140
  %24 = getelementptr inbounds nuw i8, ptr %5, i64 32
  store i64 %23, ptr %24, align 8, !tbaa !445
  %25 = call i32 %18(ptr noundef %0, ptr noundef nonnull %5, ptr noundef %2, ptr noundef %3) #17
  %.not31 = icmp eq i32 %25, 0
  br i1 %.not31, label %28, label %26

26:                                               ; preds = %20
  %27 = call ptr @_glfwGetVulkanResultString(i32 noundef %25) #17
  call void (i32, ptr, ...) @_glfwInputError(i32 noundef 65544, ptr noundef nonnull @.str.30, ptr noundef %27) #17
  br label %28

28:                                               ; preds = %20, %26, %19, %15
  %.0 = phi i32 [ -7, %19 ], [ -7, %15 ], [ %25, %26 ], [ 0, %20 ]
  call void @llvm.lifetime.end.p0(i64 40, ptr nonnull %5) #17
  br label %43

29:                                               ; preds = %4
  call void @llvm.lifetime.start.p0(i64 40, ptr nonnull %6) #17
  %30 = load ptr, ptr getelementptr inbounds nuw (i8, ptr @_glfw, i64 133832), align 8, !tbaa !439
  %31 = tail call ptr %30(ptr noundef %0, ptr noundef nonnull @.str.31) #17
  %.not = icmp eq ptr %31, null
  br i1 %.not, label %32, label %33

32:                                               ; preds = %29
  tail call void (i32, ptr, ...) @_glfwInputError(i32 noundef 65542, ptr noundef nonnull @.str.28) #17
  br label %42

33:                                               ; preds = %29
  call void @llvm.memset.p0.i64(ptr noundef nonnull align 8 dereferenceable(40) %6, i8 0, i64 24, i1 false)
  store i32 1000004000, ptr %6, align 8, !tbaa !446
  %34 = load ptr, ptr getelementptr inbounds nuw (i8, ptr @_glfw, i64 137840), align 8, !tbaa !93
  %35 = getelementptr inbounds nuw i8, ptr %6, i64 24
  store ptr %34, ptr %35, align 8, !tbaa !448
  %36 = getelementptr inbounds nuw i8, ptr %1, i64 1248
  %37 = load i64, ptr %36, align 8, !tbaa !140
  %38 = getelementptr inbounds nuw i8, ptr %6, i64 32
  store i64 %37, ptr %38, align 8, !tbaa !449
  %39 = call i32 %31(ptr noundef %0, ptr noundef nonnull %6, ptr noundef %2, ptr noundef %3) #17
  %.not28 = icmp eq i32 %39, 0
  br i1 %.not28, label %42, label %40

40:                                               ; preds = %33
  %41 = call ptr @_glfwGetVulkanResultString(i32 noundef %39) #17
  call void (i32, ptr, ...) @_glfwInputError(i32 noundef 65544, ptr noundef nonnull @.str.32, ptr noundef %41) #17
  br label %42

42:                                               ; preds = %33, %40, %32
  %.2 = phi i32 [ -7, %32 ], [ %39, %40 ], [ 0, %33 ]
  call void @llvm.lifetime.end.p0(i64 40, ptr nonnull %6) #17
  br label %43

43:                                               ; preds = %42, %28
  %.1 = phi i32 [ %.0, %28 ], [ %.2, %42 ]
  ret i32 %.1
}